; Function Attrs: mustprogress uwtable
define void @_ZN2cv6bgsegm28BackgroundSubtractorLSBPDesc25computeFromLocalSVDValuesERKNS_12_OutputArrayERKNS_3MatEPKNS_6Point_IiEE(ptr noundef nonnull align 8 dereferenceable(24) %0, ptr noundef nonnull align 8 dereferenceable(96) %1, ptr noundef %2) local_unnamed_addr #3 align 2 personality ptr @__gxx_personality_v0 {
  %4 = alloca %"class.cv::Mat", align 8
  %5 = alloca %"class.cv::Range", align 4
  %6 = alloca %"class.cv::bgsegm::(anonymous namespace)::ParallelFromLocalSVDValues", align 8
  %7 = getelementptr inbounds nuw i8, ptr %1, i64 64
  %8 = load ptr, ptr %7, align 8, !tbaa !3
  %9 = getelementptr inbounds nuw i8, ptr %8, i64 4
  %10 = load i32, ptr %9, align 4, !tbaa !9
  %11 = load i32, ptr %8, align 4, !tbaa !9
  %.sroa.2.0.insert.ext.i = zext i32 %11 to i64
  %.sroa.2.0.insert.shift.i = shl nuw i64 %.sroa.2.0.insert.ext.i, 32
  %.sroa.0.0.insert.ext.i = zext i32 %10 to i64
  %.sroa.0.0.insert.insert.i = or disjoint i64 %.sroa.2.0.insert.shift.i, %.sroa.0.0.insert.ext.i
  tail call void @_ZNK2cv12_OutputArray6createENS_5Size_IiEEiibNS0_9DepthMaskE(ptr noundef nonnull align 8 dereferenceable(24) %0, i64 %.sroa.0.0.insert.insert.i, i32 noundef 4, i32 noundef -1, i1 noundef zeroext false, i32 noundef 0)
  call void @llvm.lifetime.start.p0(i64 96, ptr nonnull %4) #29
  %12 = tail call noundef i32 @_ZNK2cv11_InputArray4kindEv(ptr noundef nonnull align 8 dereferenceable(24) %0), !noalias !42
  %13 = icmp eq i32 %12, 65536
  br i1 %13, label %14, label %17

14:                                               ; preds = %3
  %15 = getelementptr inbounds nuw i8, ptr %0, i64 8
  %16 = load ptr, ptr %15, align 8, !tbaa !11, !noalias !42
  call void @_ZN2cv3MatC1ERKS0_(ptr noundef nonnull align 8 dereferenceable(96) %4, ptr noundef nonnull align 8 dereferenceable(96) %16)
  br label %_ZNK2cv11_InputArray6getMatEi.exit

17:                                               ; preds = %3
  call void @_ZNK2cv11_InputArray7getMat_Ei(ptr dead_on_unwind nonnull writable sret(%"class.cv::Mat") align 8 %4, ptr noundef nonnull align 8 dereferenceable(24) %0, i32 noundef -1)
  br label %_ZNK2cv11_InputArray6getMatEi.exit

_ZNK2cv11_InputArray6getMatEi.exit:               ; preds = %14, %17
  call void @llvm.lifetime.start.p0(i64 8, ptr nonnull %5) #29
  %18 = mul nsw i32 %11, %10
  store i32 0, ptr %5, align 4, !tbaa !20
  %19 = getelementptr inbounds nuw i8, ptr %5, i64 4
  store i32 %18, ptr %19, align 4, !tbaa !22
  call void @llvm.lifetime.start.p0(i64 40, ptr nonnull %6) #29
  store ptr getelementptr inbounds nuw inrange(-16, 24) (i8, ptr @_ZTVN2cv6bgsegm12_GLOBAL__N_126ParallelFromLocalSVDValuesE, i64 16), ptr %6, align 8, !tbaa !23
  %20 = getelementptr inbounds nuw i8, ptr %6, i64 8
  store i64 %.sroa.0.0.insert.insert.i, ptr %20, align 8
  %21 = getelementptr inbounds nuw i8, ptr %6, i64 16
  store ptr %4, ptr %21, align 8, !tbaa !25
  %22 = getelementptr inbounds nuw i8, ptr %6, i64 24
  store ptr %1, ptr %22, align 8, !tbaa !25
  %23 = getelementptr inbounds nuw i8, ptr %6, i64 32
  store ptr %2, ptr %23, align 8, !tbaa !45
  invoke void @_ZN2cv13parallel_for_ERKNS_5RangeERKNS_16ParallelLoopBodyEd(ptr noundef nonnull align 4 dereferenceable(8) %5, ptr noundef nonnull align 8 dereferenceable(8) %6, double noundef -1.000000e+00)
          to label %24 unwind label %25

24:                                               ; preds = %_ZNK2cv11_InputArray6getMatEi.exit
  call void @_ZN2cv16ParallelLoopBodyD2Ev(ptr noundef nonnull align 8 dereferenceable(40) %6) #29
  call void @llvm.lifetime.end.p0(i64 40, ptr nonnull %6) #29
  call void @llvm.lifetime.end.p0(i64 8, ptr nonnull %5) #29
  call void @_ZN2cv3MatD1Ev(ptr noundef nonnull align 8 dereferenceable(96) %4) #29
  call void @llvm.lifetime.end.p0(i64 96, ptr nonnull %4) #29
  ret void

25:                                               ; preds = %_ZNK2cv11_InputArray6getMatEi.exit
  %26 = landingpad { ptr, i32 }
          cleanup
  call void @_ZN2cv16ParallelLoopBodyD2Ev(ptr noundef nonnull align 8 dereferenceable(40) %6) #29
  call void @llvm.lifetime.end.p0(i64 40, ptr nonnull %6) #29
  call void @llvm.lifetime.end.p0(i64 8, ptr nonnull %5) #29
  call void @_ZN2cv3MatD1Ev(ptr noundef nonnull align 8 dereferenceable(96) %4) #29
  call void @llvm.lifetime.end.p0(i64 96, ptr nonnull %4) #29
  resume { ptr, i32 } %26
}